; Function Attrs: nofree norecurse nosync nounwind memory(readwrite, inaccessiblemem: none) uwtable
define void @Aig_ManInvertConstraints(ptr noundef readonly captures(none) %0) local_unnamed_addr #0 {
  %2 = getelementptr i8, ptr %0, i64 120
  %.val11 = load i32, ptr %2, align 8, !tbaa !116
  %3 = icmp eq i32 %.val11, 0
  br i1 %3, label %.critedge, label %.preheader

.preheader:                                       ; preds = %1
  %4 = getelementptr i8, ptr %0, i64 112
  %.val9 = load i32, ptr %4, align 8, !tbaa !106
  %5 = icmp sgt i32 %.val9, 0
  br i1 %5, label %.lr.ph, label %.critedge

.lr.ph:                                           ; preds = %.preheader
  %6 = sub nsw i32 %.val9, %.val11
  %7 = getelementptr inbounds nuw i8, ptr %0, i64 24
  %8 = sext i32 %6 to i64
  %wide.trip.count = zext nneg i32 %.val9 to i64
  br label %9

9:                                                ; preds = %.lr.ph, %20
  %indvars.iv = phi i64 [ 0, %.lr.ph ], [ %indvars.iv.next, %20 ]
  %.not = icmp slt i64 %indvars.iv, %8
  br i1 %.not, label %20, label %10

10:                                               ; preds = %9
  %11 = load ptr, ptr %7, align 8, !tbaa !31
  %12 = getelementptr i8, ptr %11, i64 8
  %.val = load ptr, ptr %12, align 8, !tbaa !24
  %13 = getelementptr inbounds nuw ptr, ptr %.val, i64 %indvars.iv
  %14 = load ptr, ptr %13, align 8, !tbaa !25
  %15 = getelementptr inbounds nuw i8, ptr %14, i64 8
  %16 = load ptr, ptr %15, align 8, !tbaa !32
  %17 = ptrtoint ptr %16 to i64
  %18 = xor i64 %17, 1
  %19 = inttoptr i64 %18 to ptr
  store ptr %19, ptr %15, align 8, !tbaa !32
  br label %20

20:                                               ; preds = %9, %10
  %indvars.iv.next = add nuw nsw i64 %indvars.iv, 1
  %exitcond.not = icmp eq i64 %indvars.iv.next, %wide.trip.count
  br i1 %exitcond.not, label %.critedge, label %9, !llvm.loop !117

.critedge:                                        ; preds = %20, %.preheader, %1
  ret void
}